target datalayout = "e-m:e-p270:32:32-p271:32:32-p272:64:64-i64:64-i128:128-f80:128-n8:16:32:64-S128"
target triple = "x86_64-pc-linux-gnu"

%struct.AVChannelLayout = type { i32, i32, %union.anon.1, ptr }
%union.anon.1 = type { i64 }
%struct.AVFilterContext = type { ptr, ptr, ptr, ptr, ptr, i32, ptr, ptr, i32, ptr, ptr, i32, i32, ptr, ptr, ptr, ptr, i32, ptr, i32, i32 }
%struct.AudioPhaseMeterContext = type { ptr, ptr, ptr, i64, i32, i32, i32, i32, %struct.AVRational, [4 x i32], ptr, [4 x i8], i32, i32, i32, i32, i32, i32, float, float, float, %struct.AVRational, i64, i64, [2 x i64], [2 x i64] }
%struct.AVRational = type { i32, i32 }
%struct.AVFilterFormatsConfig = type { ptr, ptr, ptr, ptr, ptr }
%struct.AVFilterLink = type { ptr, ptr, ptr, ptr, i32, i32, i32, i32, %struct.AVRational, i32, i32, i32, %struct.AVChannelLayout, %struct.AVRational, ptr, i32, %struct.AVFilterFormatsConfig, %struct.AVFilterFormatsConfig }

; Function Attrs: nounwind uwtable
define internal i32 @config_input(ptr noundef %0) #1 {
  %2 = alloca ptr, align 8
  %3 = alloca ptr, align 8
  %4 = alloca ptr, align 8
  store ptr %0, ptr %2, align 8, !tbaa !50
  call void @llvm.lifetime.start.p0(i64 8, ptr %3) #12
  %5 = load ptr, ptr %2, align 8, !tbaa !50
  %6 = getelementptr inbounds nuw %struct.AVFilterLink, ptr %5, i32 0, i32 2
  %7 = load ptr, ptr %6, align 8, !tbaa !59
  store ptr %7, ptr %3, align 8, !tbaa !4
  call void @llvm.lifetime.start.p0(i64 8, ptr %4) #12
  %8 = load ptr, ptr %3, align 8, !tbaa !4
  %9 = getelementptr inbounds nuw %struct.AVFilterContext, ptr %8, i32 0, i32 9
  %10 = load ptr, ptr %9, align 8, !tbaa !9
  store ptr %10, ptr %4, align 8, !tbaa !22
  %11 = load ptr, ptr %4, align 8, !tbaa !22
  %12 = getelementptr inbounds nuw %struct.AudioPhaseMeterContext, ptr %11, i32 0, i32 22
  %13 = load i64, ptr %12, align 8, !tbaa !65
  %14 = load ptr, ptr %2, align 8, !tbaa !50
  %15 = getelementptr inbounds nuw %struct.AVFilterLink, ptr %14, i32 0, i32 11
  %16 = load i32, ptr %15, align 8, !tbaa !66
  %17 = sext i32 %16 to i64
  %18 = call i64 @av_rescale(i64 noundef %13, i64 noundef %17, i64 noundef 1000000) #13
  %19 = load ptr, ptr %4, align 8, !tbaa !22
  %20 = getelementptr inbounds nuw %struct.AudioPhaseMeterContext, ptr %19, i32 0, i32 22
  store i64 %18, ptr %20, align 8, !tbaa !65
  %21 = load ptr, ptr %4, align 8, !tbaa !22
  %22 = getelementptr inbounds nuw %struct.AudioPhaseMeterContext, ptr %21, i32 0, i32 4
  %23 = load i32, ptr %22, align 8, !tbaa !32
  %24 = icmp ne i32 %23, 0
  br i1 %24, label %25, label %64

25:                                               ; preds = %1
  %26 = load ptr, ptr %2, align 8, !tbaa !50
  %27 = getelementptr inbounds nuw %struct.AVFilterLink, ptr %26, i32 0, i32 11
  %28 = load i32, ptr %27, align 8, !tbaa !66
  %29 = sext i32 %28 to i64
  %30 = load ptr, ptr %4, align 8, !tbaa !22
  %31 = getelementptr inbounds nuw %struct.AudioPhaseMeterContext, ptr %30, i32 0, i32 8
  %32 = getelementptr inbounds nuw %struct.AVRational, ptr %31, i32 0, i32 1
  %33 = load i32, ptr %32, align 4, !tbaa !67
  %34 = sext i32 %33 to i64
  %35 = load ptr, ptr %4, align 8, !tbaa !22
  %36 = getelementptr inbounds nuw %struct.AudioPhaseMeterContext, ptr %35, i32 0, i32 8
  %37 = getelementptr inbounds nuw %struct.AVRational, ptr %36, i32 0, i32 0
  %38 = load i32, ptr %37, align 8, !tbaa !68
  %39 = sext i32 %38 to i64
  %40 = call i64 @av_rescale(i64 noundef %29, i64 noundef %34, i64 noundef %39) #13
  %41 = icmp sgt i64 1, %40
  br i1 %41, label %42, label %43

42:                                               ; preds = %25
  br label %59

43:                                               ; preds = %25
  %44 = load ptr, ptr %2, align 8, !tbaa !50
  %45 = getelementptr inbounds nuw %struct.AVFilterLink, ptr %44, i32 0, i32 11
  %46 = load i32, ptr %45, align 8, !tbaa !66
  %47 = sext i32 %46 to i64
  %48 = load ptr, ptr %4, align 8, !tbaa !22
  %49 = getelementptr inbounds nuw %struct.AudioPhaseMeterContext, ptr %48, i32 0, i32 8
  %50 = getelementptr inbounds nuw %struct.AVRational, ptr %49, i32 0, i32 1
  %51 = load i32, ptr %50, align 4, !tbaa !67
  %52 = sext i32 %51 to i64
  %53 = load ptr, ptr %4, align 8, !tbaa !22
  %54 = getelementptr inbounds nuw %struct.AudioPhaseMeterContext, ptr %53, i32 0, i32 8
  %55 = getelementptr inbounds nuw %struct.AVRational, ptr %54, i32 0, i32 0
  %56 = load i32, ptr %55, align 8, !tbaa !68
  %57 = sext i32 %56 to i64
  %58 = call i64 @av_rescale(i64 noundef %47, i64 noundef %52, i64 noundef %57) #13
  br label %59

59:                                               ; preds = %43, %42
  %60 = phi i64 [ 1, %42 ], [ %58, %43 ]
  %61 = trunc i64 %60 to i32
  %62 = load ptr, ptr %4, align 8, !tbaa !22
  %63 = getelementptr inbounds nuw %struct.AudioPhaseMeterContext, ptr %62, i32 0, i32 17
  store i32 %61, ptr %63, align 8, !tbaa !54
  br label %64

64:                                               ; preds = %59, %1
  call void @llvm.lifetime.end.p0(i64 8, ptr %4) #12
  call void @llvm.lifetime.end.p0(i64 8, ptr %3) #12
  ret i32 0
}