; Function Attrs: mustprogress nofree nosync nounwind willreturn memory(readwrite, inaccessiblemem: none) uwtable
define internal noundef i32 @config_input(ptr noundef readonly captures(none) %0) #2 {
  %2 = getelementptr inbounds nuw i8, ptr %0, i64 16
  %3 = load ptr, ptr %2, align 8, !tbaa !43
  %4 = getelementptr inbounds nuw i8, ptr %3, i64 72
  %5 = load ptr, ptr %4, align 8, !tbaa !4
  %6 = getelementptr inbounds nuw i8, ptr %5, i64 128
  %7 = load i64, ptr %6, align 8, !tbaa !32
  %8 = getelementptr inbounds nuw i8, ptr %0, i64 64
  %9 = load i32, ptr %8, align 8, !tbaa !83
  %10 = sext i32 %9 to i64
  %11 = tail call i64 @av_rescale(i64 noundef %7, i64 noundef %10, i64 noundef 1000000) #14
  store i64 %11, ptr %6, align 8, !tbaa !32
  %12 = getelementptr inbounds nuw i8, ptr %5, i64 32
  %13 = load i32, ptr %12, align 8, !tbaa !22
  %.not = icmp eq i32 %13, 0
  br i1 %.not, label %23, label %14

14:                                               ; preds = %1
  %15 = getelementptr inbounds nuw i8, ptr %5, i64 48
  %16 = getelementptr inbounds nuw i8, ptr %5, i64 52
  %17 = load i32, ptr %16, align 4, !tbaa !84
  %18 = sext i32 %17 to i64
  %19 = load i32, ptr %15, align 8, !tbaa !85
  %20 = sext i32 %19 to i64
  %21 = tail call i64 @av_rescale(i64 noundef %10, i64 noundef %18, i64 noundef %20) #14
  %spec.select13 = tail call i64 @llvm.smax.i64(i64 %21, i64 1)
  %spec.select = trunc i64 %spec.select13 to i32
  %22 = getelementptr inbounds nuw i8, ptr %5, i64 104
  store i32 %spec.select, ptr %22, align 8, !tbaa !41
  br label %23

23:                                               ; preds = %14, %1
  ret i32 0
}